; Function Attrs: mustprogress uwtable
define noundef i64 @_ZN9syscall_t9sys_preadEmmmmmmm(ptr nocapture noundef nonnull readonly align 8 dereferenceable(176) %0, i64 noundef %1, i64 noundef %2, i64 noundef %3, i64 noundef %4, i64 %5, i64 %6, i64 %7) #3 align 2 personality ptr @__gxx_personality_v0 {
  %9 = alloca %"class.std::vector.40", align 8
  %10 = alloca %"class.std::allocator.20", align 1
  call void @_ZNSaIcEC1Ev(ptr noundef nonnull align 1 dereferenceable(1) %10) #26
  invoke void @_ZNSt6vectorIcSaIcEEC2EmRKS0_(ptr noundef nonnull align 8 dereferenceable(24) %9, i64 noundef %3, ptr noundef nonnull align 1 dereferenceable(1) %10)
          to label %11 unwind label %42

11:                                               ; preds = %8
  call void @_ZNSaIcED1Ev(ptr noundef nonnull align 1 dereferenceable(1) %10) #26
  %12 = and i64 %1, 4294967295
  %13 = icmp eq i64 %12, 4294967196
  br i1 %13, label %_ZN5fds_t6lookupEm.exit, label %14

14:                                               ; preds = %11
  %15 = getelementptr inbounds i8, ptr %0, i64 96
  %16 = getelementptr inbounds i8, ptr %0, i64 104
  %17 = load ptr, ptr %16, align 8
  %18 = load ptr, ptr %15, align 8
  %19 = ptrtoint ptr %17 to i64
  %20 = ptrtoint ptr %18 to i64
  %21 = sub i64 %19, %20
  %22 = ashr exact i64 %21, 2
  %.not.i = icmp ugt i64 %22, %1
  br i1 %.not.i, label %23, label %_ZN5fds_t6lookupEm.exit

23:                                               ; preds = %14
  %24 = getelementptr inbounds i32, ptr %18, i64 %1
  %25 = load i32, ptr %24, align 4
  br label %_ZN5fds_t6lookupEm.exit

_ZN5fds_t6lookupEm.exit:                          ; preds = %11, %14, %23
  %.0.i = phi i32 [ -100, %11 ], [ %25, %23 ], [ -1, %14 ]
  %26 = load ptr, ptr %9, align 8
  %27 = invoke i64 @pread(i32 noundef %.0.i, ptr noundef %26, i64 noundef %3, i64 noundef %4)
          to label %28 unwind label %44

28:                                               ; preds = %_ZN5fds_t6lookupEm.exit
  %29 = icmp eq i64 %27, -1
  br i1 %29, label %_ZL12sysret_errnol.exit.thread, label %_ZL12sysret_errnol.exit

_ZL12sysret_errnol.exit.thread:                   ; preds = %28
  %30 = tail call ptr @__errno_location() #30
  %31 = load i32, ptr %30, align 4
  %32 = sub nsw i32 0, %31
  %33 = sext i32 %32 to i64
  br label %46

_ZL12sysret_errnol.exit:                          ; preds = %28
  %34 = icmp sgt i64 %27, 0
  br i1 %34, label %35, label %46

35:                                               ; preds = %_ZL12sysret_errnol.exit
  %36 = getelementptr inbounds i8, ptr %0, i64 64
  %37 = load ptr, ptr %36, align 8
  %38 = load ptr, ptr %9, align 8
  %39 = load ptr, ptr %37, align 8
  %40 = getelementptr inbounds i8, ptr %39, i64 24
  %41 = load ptr, ptr %40, align 8
  invoke void %41(ptr noundef nonnull align 8 dereferenceable(16) %37, i64 noundef %2, i64 noundef %27, ptr noundef %38)
          to label %46 unwind label %44

42:                                               ; preds = %8
  %43 = landingpad { ptr, i32 }
          cleanup
  call void @_ZNSaIcED1Ev(ptr noundef nonnull align 1 dereferenceable(1) %10) #26
  br label %50

44:                                               ; preds = %35, %_ZN5fds_t6lookupEm.exit
  %45 = landingpad { ptr, i32 }
          cleanup
  call void @_ZNSt6vectorIcSaIcEED2Ev(ptr noundef nonnull align 8 dereferenceable(24) %9) #26
  br label %50

46:                                               ; preds = %_ZL12sysret_errnol.exit.thread, %35, %_ZL12sysret_errnol.exit
  %47 = phi i64 [ %33, %_ZL12sysret_errnol.exit.thread ], [ %27, %35 ], [ %27, %_ZL12sysret_errnol.exit ]
  %48 = load ptr, ptr %9, align 8
  %.not.i.i.i = icmp eq ptr %48, null
  br i1 %.not.i.i.i, label %_ZNSt6vectorIcSaIcEED2Ev.exit, label %49

49:                                               ; preds = %46
  call void @_ZdlPv(ptr noundef nonnull %48) #29
  br label %_ZNSt6vectorIcSaIcEED2Ev.exit

_ZNSt6vectorIcSaIcEED2Ev.exit:                    ; preds = %46, %49
  call void @_ZNSaIcED2Ev(ptr noundef nonnull align 1 dereferenceable(1) %9) #26
  ret i64 %47

50:                                               ; preds = %44, %42
  %.pn = phi { ptr, i32 } [ %45, %44 ], [ %43, %42 ]
  resume { ptr, i32 } %.pn
}